Certificate:
    Data:
        Version: 3 (0x2)
        Serial Number: 1 (0x1)
    Signature Algorithm: sha256WithRSAEncryption
        Issuer: C=US, ST=WI, L=Milwaukee, O=Francisco ORG, OU=IT, CN=Francisco ORG CA/name=server/emailAddress=ben@francisco.org
        Validity
            Not Before: Sep 22 03:18:36 2017 GMT
            Not After : Sep 20 03:18:36 2027 GMT
        Subject: C=US, ST=WI, L=Milwaukee, O=Francisco ORG, OU=IT, CN=server/name=server/emailAddress=ben@francisco.org
        Subject Public Key Info:
            Public Key Algorithm: rsaEncryption
                Public-Key: (2048 bit)
                Modulus:
                    00:b3:a7:4c:b2:b2:a2:e4:c1:ff:19:71:21:52:97:
                    1e:d3:70:fa:33:27:65:d6:44:3e:dc:71:87:75:82:
                    49:61:d0:3b:35:8b:68:e9:0f:79:cb:79:45:e5:c6:
                    c2:a1:eb:da:f2:95:b6:c9:ac:3d:39:21:f7:83:e3:
                    c2:22:b7:83:bf:18:cd:48:9b:fe:6a:47:18:fb:c2:
                    37:69:3a:6a:1f:c3:1f:1a:e1:b6:70:38:7c:a8:e7:
                    2f:04:d0:97:14:09:5c:c8:de:81:68:3d:73:59:fc:
                    8c:29:e9:2c:e0:14:35:64:1d:78:e5:5e:71:f1:33:
                    ee:e6:7a:e1:6d:87:1b:b9:e6:ec:65:d5:2f:84:5a:
                    17:12:09:c3:f8:d0:2d:b3:a1:6a:d0:0f:a2:42:07:
                    5e:c4:87:0b:22:55:c1:e7:9f:bd:56:f5:22:f6:a0:
                    b1:83:ba:ce:be:86:db:e0:e9:ca:0c:53:9a:b6:3f:
                    79:90:2b:c2:fd:08:e4:59:05:27:f5:27:73:83:65:
                    52:b9:dc:6b:e7:01:e8:79:78:c6:b9:e8:f2:eb:51:
                    74:06:d1:de:bd:cc:32:aa:53:33:ea:6c:70:4c:4a:
                    dd:49:d8:97:19:17:38:d3:d8:fa:29:45:9e:84:3c:
                    3e:13:e2:2c:8f:9c:3a:a1:d8:29:23:5b:f4:13:7d:
                    ec:a5
                Exponent: 65537 (0x10001)
        X509v3 extensions:
            X509v3 Basic Constraints: 
                CA:FALSE
            Netscape Cert Type: 
                SSL Server
            Netscape Comment: 
                Easy-RSA Generated Server Certificate
            X509v3 Subject Key Identifier: 
                43:B7:7F:DA:78:3D:6D:B8:86:27:7A:E8:BC:9E:6E:6F:24:E6:70:FB
            X509v3 Authority Key Identifier: 
                keyid:98:68:49:15:29:52:4F:B4:9B:28:89:EF:E2:AF:5B:05:0D:B3:FB:16
                DirName:/C=US/ST=WI/L=Milwaukee/O=Francisco ORG/OU=IT/CN=Francisco ORG CA/name=server/emailAddress=ben@francisco.org
                serial:83:C5:21:31:C8:93:32:87

            X509v3 Extended Key Usage: 
                TLS Web Server Authentication
            X509v3 Key Usage: 
                Digital Signature, Key Encipherment
    Signature Algorithm: sha256WithRSAEncryption
         89:f4:d5:58:b4:f7:34:8c:c6:b8:99:2a:5e:47:ef:fc:87:f5:
         8e:e2:2b:fe:72:28:49:ce:3a:a8:0c:87:5b:90:13:e3:92:8a:
         45:e8:b1:fa:c9:b1:78:ee:95:58:14:d0:c4:bc:d4:00:6f:8d:
         44:98:42:d9:a1:c3:98:99:35:13:33:70:3c:d1:c9:44:a0:1a:
         c7:2f:39:fa:15:77:11:b8:34:bc:84:7a:bc:29:d2:dc:fb:a9:
         a8:bc:10:37:bd:85:04:84:3b:d6:6f:63:15:66:92:f1:75:02:
         40:22:86:36:1f:3f:c1:9b:1c:2c:f3:74:c8:0b:8c:5f:f2:82:
         0a:65:32:08:fb:a5:cb:46:cf:2e:bf:75:e0:4d:a4:1d:82:33:
         cc:6d:f1:51:a3:34:c6:a7:8e:ba:4e:ab:e2:ff:e7:16:70:5b:
         2f:15:db:03:2c:4e:fe:b9:b4:e9:ed:17:2a:0c:4b:f3:e3:53:
         82:5a:67:f0:5b:d6:e9:21:b6:29:66:d6:d4:99:0c:9e:30:ff:
         ef:84:04:2b:0a:e4:87:0e:27:81:42:29:29:22:75:79:13:ca:
         dc:87:22:2e:cd:ac:35:64:23:3a:cb:fd:97:13:ad:b8:5f:1d:
         3b:f1:f1:51:25:6a:50:dd:9d:b8:e1:8c:90:9d:a4:0d:85:39:
         57:f3:c6:76
-----BEGIN CERTIFICATE-----
MIIFKTCCBBGgAwIBAgIBATANBgkqhkiG9w0BAQsFADCBoTELMAkGA1UEBhMCVVMx
CzAJBgNVBAgTAldJMRIwEAYDVQQHEwlNaWx3YXVrZWUxFjAUBgNVBAoTDUZyYW5j
aXNjbyBPUkcxCzAJBgNVBAsTAklUMRkwFwYDVQQDExBGcmFuY2lzY28gT1JHIENB
MQ8wDQYDVQQpEwZzZXJ2ZXIxIDAeBgkqhkiG9w0BCQEWEWJlbkBmcmFuY2lzY28u
b3JnMB4XDTE3MDkyMjAzMTgzNloXDTI3MDkyMDAzMTgzNlowgZcxCzAJBgNVBAYT
AlVTMQswCQYDVQQIEwJXSTESMBAGA1UEBxMJTWlsd2F1a2VlMRYwFAYDVQQKEw1G
cmFuY2lzY28gT1JHMQswCQYDVQQLEwJJVDEPMA0GA1UEAxMGc2VydmVyMQ8wDQYD
VQQpEwZzZXJ2ZXIxIDAeBgkqhkiG9w0BCQEWEWJlbkBmcmFuY2lzY28ub3JnMIIB
IjANBgkqhkiG9w0BAQEFAAOCAQ8AMIIBCgKCAQEAs6dMsrKi5MH/GXEhUpce03D6
Mydl1kQ+3HGHdYJJYdA7NYto6Q95y3lF5cbCoeva8pW2yaw9OSH3g+PCIreDvxjN
SJv+akcY+8I3aTpqH8MfGuG2cDh8qOcvBNCXFAlcyN6BaD1zWfyMKeks4BQ1ZB14
5V5x8TPu5nrhbYcbuebsZdUvhFoXEgnD+NAts6Fq0A+iQgdexIcLIlXB55+9VvUi
9qCxg7rOvobb4OnKDFOatj95kCvC/QjkWQUn9Sdzg2VSudxr5wHoeXjGuejy61F0
BtHevcwyqlMz6mxwTErdSdiXGRc409j6KUWehDw+E+Isj5w6odgpI1v0E33spQID
AQABo4IBcjCCAW4wCQYDVR0TBAIwADARBglghkgBhvhCAQEEBAMCBkAwNAYJYIZI
AYb4QgENBCcWJUVhc3ktUlNBIEdlbmVyYXRlZCBTZXJ2ZXIgQ2VydGlmaWNhdGUw
HQYDVR0OBBYEFEO3f9p4PW24hid66Lyebm8k5nD7MIHWBgNVHSMEgc4wgcuAFJho
SRUpUk+0myiJ7+KvWwUNs/sWoYGnpIGkMIGhMQswCQYDVQQGEwJVUzELMAkGA1UE
CBMCV0kxEjAQBgNVBAcTCU1pbHdhdWtlZTEWMBQGA1UEChMNRnJhbmNpc2NvIE9S
RzELMAkGA1UECxMCSVQxGTAXBgNVBAMTEEZyYW5jaXNjbyBPUkcgQ0ExDzANBgNV
BCkTBnNlcnZlcjEgMB4GCSqGSIb3DQEJARYRYmVuQGZyYW5jaXNjby5vcmeCCQCD
xSExyJMyhzATBgNVHSUEDDAKBggrBgEFBQcDATALBgNVHQ8EBAMCBaAwDQYJKoZI
hvcNAQELBQADggEBAIn01Vi09zSMxriZKl5H7/yH9Y7iK/5yKEnOOqgMh1uQE+OS
ikXosfrJsXjulVgU0MS81ABvjUSYQtmhw5iZNRMzcDzRyUSgGscvOfoVdxG4NLyE
erwp0tz7qai8EDe9hQSEO9ZvYxVmkvF1AkAihjYfP8GbHCzzdMgLjF/yggplMgj7
pctGzy6/deBNpB2CM8xt8VGjNManjrpOq+L/5xZwWy8V2wMsTv65tOntFyoMS/Pj
U4JaZ/Bb1ukhtilm1tSZDJ4w/++EBCsK5IcOJ4FCKSkidXkTytyHIi7NrDVkIzrL
/ZcTrbhfHTvx8VElalDdnbjhjJCdpA2FOVfzxnY=
-----END CERTIFICATE-----
