Certificate:
    Data:
        Version: 3 (0x2)
        Serial Number: 2 (0x2)
    Signature Algorithm: sha256WithRSAEncryption
        Issuer: C=US, ST=WI, L=Milwaukee, O=Francisco ORG, OU=IT, CN=server.test/name=server/emailAddress=ben@francisco.org
        Validity
            Not Before: Sep 23 02:37:45 2017 GMT
            Not After : Sep 21 02:37:45 2027 GMT
        Subject: C=US, ST=WI, L=Milwaukee, O=Francisco ORG, OU=IT, CN=client/name=client/emailAddress=ben@francisco.org
        Subject Public Key Info:
            Public Key Algorithm: rsaEncryption
                Public-Key: (1024 bit)
                Modulus:
                    00:c8:a8:36:45:f1:54:55:4c:6e:d1:e7:ff:c5:7b:
                    22:7f:4b:fd:90:09:49:e3:c8:64:15:61:5e:4b:1f:
                    6c:5b:0e:9a:7a:5a:f6:1a:40:f6:94:5a:67:07:05:
                    5e:ff:74:85:9d:0d:ed:ab:c5:7d:82:1d:c3:44:ca:
                    e1:09:99:a8:a3:75:c0:5f:b4:26:44:89:de:70:61:
                    fb:d0:a0:05:b2:32:82:85:17:47:41:67:30:2a:29:
                    80:c2:a9:60:fe:f8:2b:d7:1a:58:fb:3a:56:4d:35:
                    e7:fa:52:ab:d9:71:fe:97:a1:75:82:d9:12:94:64:
                    95:52:f5:ee:20:32:02:56:b1
                Exponent: 65537 (0x10001)
        X509v3 extensions:
            X509v3 Basic Constraints: 
                CA:FALSE
            Netscape Comment: 
                Easy-RSA Generated Certificate
            X509v3 Subject Key Identifier: 
                1B:96:6E:B2:C0:04:2C:C3:7E:A8:4C:4A:70:5F:35:71:8D:6A:62:AE
            X509v3 Authority Key Identifier: 
                keyid:0E:3B:37:97:00:3E:ED:5E:0D:CE:22:4B:F4:3C:C8:70:14:F2:85:71
                DirName:/C=US/ST=WI/L=Milwaukee/O=Francisco ORG/OU=IT/CN=server.test/name=server/emailAddress=ben@francisco.org
                serial:C8:C9:62:DD:0D:F6:87:3E

            X509v3 Extended Key Usage: 
                TLS Web Client Authentication
            X509v3 Key Usage: 
                Digital Signature
    Signature Algorithm: sha256WithRSAEncryption
         a3:83:79:b2:0b:46:55:e3:03:e7:cc:c0:75:44:7c:1a:78:d2:
         be:78:fa:26:ec:e1:10:d4:6b:a0:9d:1b:b7:b9:f6:e0:5a:cb:
         2c:68:c6:a6:76:7d:51:43:25:d8:33:7a:8b:13:e3:e0:ec:09:
         7f:19:53:e3:cb:1b:61:1f:85:33:b3:92:cd:dc:18:e0:5d:92:
         48:7c:cd:cc:c3:31:c2:df:21:b6:bd:8c:3e:77:42:8b:9d:d5:
         6c:ac:43:0a:cc:53:da:a7:1e:0d:83:c2:3c:aa:4c:0e:fa:58:
         e9:41:30:ce:12:da:e1:88:77:11:2e:12:b8:2d:52:83:e9:f1:
         70:fd
-----BEGIN CERTIFICATE-----
MIIEADCCA2mgAwIBAgIBAjANBgkqhkiG9w0BAQsFADCBnDELMAkGA1UEBhMCVVMx
CzAJBgNVBAgTAldJMRIwEAYDVQQHEwlNaWx3YXVrZWUxFjAUBgNVBAoTDUZyYW5j
aXNjbyBPUkcxCzAJBgNVBAsTAklUMRQwEgYDVQQDEwtzZXJ2ZXIudGVzdDEPMA0G
A1UEKRMGc2VydmVyMSAwHgYJKoZIhvcNAQkBFhFiZW5AZnJhbmNpc2NvLm9yZzAe
Fw0xNzA5MjMwMjM3NDVaFw0yNzA5MjEwMjM3NDVaMIGXMQswCQYDVQQGEwJVUzEL
MAkGA1UECBMCV0kxEjAQBgNVBAcTCU1pbHdhdWtlZTEWMBQGA1UEChMNRnJhbmNp
c2NvIE9SRzELMAkGA1UECxMCSVQxDzANBgNVBAMTBmNsaWVudDEPMA0GA1UEKRMG
Y2xpZW50MSAwHgYJKoZIhvcNAQkBFhFiZW5AZnJhbmNpc2NvLm9yZzCBnzANBgkq
hkiG9w0BAQEFAAOBjQAwgYkCgYEAyKg2RfFUVUxu0ef/xXsif0v9kAlJ48hkFWFe
Sx9sWw6aelr2GkD2lFpnBwVe/3SFnQ3tq8V9gh3DRMrhCZmoo3XAX7QmRInecGH7
0KAFsjKChRdHQWcwKimAwqlg/vgr1xpY+zpWTTXn+lKr2XH+l6F1gtkSlGSVUvXu
IDICVrECAwEAAaOCAVMwggFPMAkGA1UdEwQCMAAwLQYJYIZIAYb4QgENBCAWHkVh
c3ktUlNBIEdlbmVyYXRlZCBDZXJ0aWZpY2F0ZTAdBgNVHQ4EFgQUG5ZussAELMN+
qExKcF81cY1qYq4wgdEGA1UdIwSByTCBxoAUDjs3lwA+7V4NziJL9DzIcBTyhXGh
gaKkgZ8wgZwxCzAJBgNVBAYTAlVTMQswCQYDVQQIEwJXSTESMBAGA1UEBxMJTWls
d2F1a2VlMRYwFAYDVQQKEw1GcmFuY2lzY28gT1JHMQswCQYDVQQLEwJJVDEUMBIG
A1UEAxMLc2VydmVyLnRlc3QxDzANBgNVBCkTBnNlcnZlcjEgMB4GCSqGSIb3DQEJ
ARYRYmVuQGZyYW5jaXNjby5vcmeCCQDIyWLdDfaHPjATBgNVHSUEDDAKBggrBgEF
BQcDAjALBgNVHQ8EBAMCB4AwDQYJKoZIhvcNAQELBQADgYEAo4N5sgtGVeMD58zA
dUR8GnjSvnj6JuzhENRroJ0bt7n24FrLLGjGpnZ9UUMl2DN6ixPj4OwJfxlT48sb
YR+FM7OSzdwY4F2SSHzNzMMxwt8htr2MPndCi53VbKxDCsxT2qceDYPCPKpMDvpY
6UEwzhLa4Yh3ES4SuC1Sg+nxcP0=
-----END CERTIFICATE-----
