Certificate:
    Data:
        Version: 3 (0x2)
        Serial Number: 1 (0x1)
    Signature Algorithm: sha256WithRSAEncryption
        Issuer: C=US, ST=WI, L=Milwaukee, O=Francisco ORG, OU=IT, CN=server.test/name=server/emailAddress=ben@francisco.org
        Validity
            Not Before: Sep 23 02:22:32 2017 GMT
            Not After : Sep 21 02:22:32 2027 GMT
        Subject: C=US, ST=WI, L=Milwaukee, O=Francisco ORG, OU=IT, CN=server/name=server/emailAddress=./build-dh
        Subject Public Key Info:
            Public Key Algorithm: rsaEncryption
                Public-Key: (1024 bit)
                Modulus:
                    00:c9:95:d2:40:2e:09:72:76:66:4d:96:de:e0:4e:
                    51:66:c3:91:c3:1c:50:85:66:04:1d:07:4e:60:da:
                    21:5d:22:7d:af:c6:22:45:28:49:49:6c:5e:38:d4:
                    c7:da:7d:2a:2a:dd:7a:0d:76:43:8b:55:f3:de:d9:
                    f8:0d:19:fd:73:f5:c7:83:5f:fb:c2:d4:6b:66:1b:
                    92:a1:ea:02:52:91:f8:3c:55:4d:9b:44:14:cc:cc:
                    2e:8c:a5:c5:ae:65:e8:cc:c1:17:e6:31:17:70:6a:
                    b8:6a:8b:34:b8:06:b9:13:df:ba:ee:21:58:b3:fb:
                    0a:8d:e6:5e:5e:d2:d0:42:f3
                Exponent: 65537 (0x10001)
        X509v3 extensions:
            X509v3 Basic Constraints: 
                CA:FALSE
            Netscape Cert Type: 
                SSL Server
            Netscape Comment: 
                Easy-RSA Generated Server Certificate
            X509v3 Subject Key Identifier: 
                28:8E:7E:17:16:C6:D8:25:5D:38:2E:56:EE:4C:5B:32:47:75:65:80
            X509v3 Authority Key Identifier: 
                keyid:0E:3B:37:97:00:3E:ED:5E:0D:CE:22:4B:F4:3C:C8:70:14:F2:85:71
                DirName:/C=US/ST=WI/L=Milwaukee/O=Francisco ORG/OU=IT/CN=server.test/name=server/emailAddress=ben@francisco.org
                serial:C8:C9:62:DD:0D:F6:87:3E

            X509v3 Extended Key Usage: 
                TLS Web Server Authentication
            X509v3 Key Usage: 
                Digital Signature, Key Encipherment
    Signature Algorithm: sha256WithRSAEncryption
         60:6e:2a:54:fc:f1:34:00:fc:4d:5b:b5:90:f0:44:06:d5:71:
         1f:61:cd:1c:bc:aa:80:4f:f7:41:46:44:ce:cd:55:40:08:c0:
         57:d9:35:ea:7c:fc:54:98:64:02:19:74:71:b8:ac:4b:55:5a:
         ec:ac:42:c6:30:de:d4:33:08:dc:cc:32:78:a1:eb:73:e2:72:
         73:13:89:b1:49:51:f1:2a:06:a2:d1:a0:69:75:66:8f:4f:4e:
         f4:d2:7f:31:83:df:12:eb:22:7b:aa:e0:f1:7f:34:a2:2d:39:
         ab:e3:de:eb:54:96:b9:cb:58:35:15:95:73:21:07:d2:57:b5:
         c0:9a
-----BEGIN CERTIFICATE-----
MIIEEzCCA3ygAwIBAgIBATANBgkqhkiG9w0BAQsFADCBnDELMAkGA1UEBhMCVVMx
CzAJBgNVBAgTAldJMRIwEAYDVQQHEwlNaWx3YXVrZWUxFjAUBgNVBAoTDUZyYW5j
aXNjbyBPUkcxCzAJBgNVBAsTAklUMRQwEgYDVQQDEwtzZXJ2ZXIudGVzdDEPMA0G
A1UEKRMGc2VydmVyMSAwHgYJKoZIhvcNAQkBFhFiZW5AZnJhbmNpc2NvLm9yZzAe
Fw0xNzA5MjMwMjIyMzJaFw0yNzA5MjEwMjIyMzJaMIGQMQswCQYDVQQGEwJVUzEL
MAkGA1UECBMCV0kxEjAQBgNVBAcTCU1pbHdhdWtlZTEWMBQGA1UEChMNRnJhbmNp
c2NvIE9SRzELMAkGA1UECxMCSVQxDzANBgNVBAMTBnNlcnZlcjEPMA0GA1UEKRMG
c2VydmVyMRkwFwYJKoZIhvcNAQkBFgouL2J1aWxkLWRoMIGfMA0GCSqGSIb3DQEB
AQUAA4GNADCBiQKBgQDJldJALglydmZNlt7gTlFmw5HDHFCFZgQdB05g2iFdIn2v
xiJFKElJbF441MfafSoq3XoNdkOLVfPe2fgNGf1z9ceDX/vC1GtmG5Kh6gJSkfg8
VU2bRBTMzC6MpcWuZejMwRfmMRdwarhqizS4BrkT37ruIViz+wqN5l5e0tBC8wID
AQABo4IBbTCCAWkwCQYDVR0TBAIwADARBglghkgBhvhCAQEEBAMCBkAwNAYJYIZI
AYb4QgENBCcWJUVhc3ktUlNBIEdlbmVyYXRlZCBTZXJ2ZXIgQ2VydGlmaWNhdGUw
HQYDVR0OBBYEFCiOfhcWxtglXTguVu5MWzJHdWWAMIHRBgNVHSMEgckwgcaAFA47
N5cAPu1eDc4iS/Q8yHAU8oVxoYGipIGfMIGcMQswCQYDVQQGEwJVUzELMAkGA1UE
CBMCV0kxEjAQBgNVBAcTCU1pbHdhdWtlZTEWMBQGA1UEChMNRnJhbmNpc2NvIE9S
RzELMAkGA1UECxMCSVQxFDASBgNVBAMTC3NlcnZlci50ZXN0MQ8wDQYDVQQpEwZz
ZXJ2ZXIxIDAeBgkqhkiG9w0BCQEWEWJlbkBmcmFuY2lzY28ub3JnggkAyMli3Q32
hz4wEwYDVR0lBAwwCgYIKwYBBQUHAwEwCwYDVR0PBAQDAgWgMA0GCSqGSIb3DQEB
CwUAA4GBAGBuKlT88TQA/E1btZDwRAbVcR9hzRy8qoBP90FGRM7NVUAIwFfZNep8
/FSYZAIZdHG4rEtVWuysQsYw3tQzCNzMMnih63PicnMTibFJUfEqBqLRoGl1Zo9P
TvTSfzGD3xLrInuq4PF/NKItOavj3utUlrnLWDUVlXMhB9JXtcCa
-----END CERTIFICATE-----
